; Function Attrs: nounwind sspstrong uwtable
define i32 @rsock_cmsg_type_arg(i32 noundef %0, i32 noundef %1, i64 noundef %2) local_unnamed_addr #0 {
  %4 = and i32 %0, -9
  %or.cond = icmp eq i32 %4, 2
  br i1 %or.cond, label %5, label %23

5:                                                ; preds = %3
  switch i32 %1, label %16 [
    i32 1, label %6
    i32 0, label %8
    i32 41, label %10
    i32 6, label %12
    i32 17, label %14
  ]

6:                                                ; preds = %5
  %7 = tail call fastcc i32 @constant_arg(i64 noundef %2, ptr noundef nonnull @rsock_scm_optname_to_int, ptr noundef nonnull @.str.430)
  br label %33

8:                                                ; preds = %5
  %9 = tail call fastcc i32 @constant_arg(i64 noundef %2, ptr noundef nonnull @rsock_ip_optname_to_int, ptr noundef nonnull @.str.431)
  br label %33

10:                                               ; preds = %5
  %11 = tail call fastcc i32 @constant_arg(i64 noundef %2, ptr noundef nonnull @rsock_ipv6_optname_to_int, ptr noundef nonnull @.str.432)
  br label %33

12:                                               ; preds = %5
  %13 = tail call fastcc i32 @constant_arg(i64 noundef %2, ptr noundef nonnull @rsock_tcp_optname_to_int, ptr noundef nonnull @.str.433)
  br label %33

14:                                               ; preds = %5
  %15 = tail call fastcc i32 @constant_arg(i64 noundef %2, ptr noundef nonnull @rsock_udp_optname_to_int, ptr noundef nonnull @.str.434)
  br label %33

16:                                               ; preds = %5
  %17 = and i64 %2, 1
  %.not.i = icmp eq i64 %17, 0
  br i1 %.not.i, label %20, label %18

18:                                               ; preds = %16
  %19 = tail call i64 @rb_fix2int(i64 noundef %2) #6
  br label %rb_num2int_inline.exit

20:                                               ; preds = %16
  %21 = tail call i64 @rb_num2int(i64 noundef %2) #6
  br label %rb_num2int_inline.exit

rb_num2int_inline.exit:                           ; preds = %18, %20
  %.0.i = phi i64 [ %19, %18 ], [ %21, %20 ]
  %22 = trunc i64 %.0.i to i32
  br label %33

23:                                               ; preds = %3
  %cond = icmp eq i32 %1, 1
  br i1 %cond, label %24, label %26

24:                                               ; preds = %23
  %25 = tail call fastcc i32 @constant_arg(i64 noundef %2, ptr noundef nonnull @rsock_scm_optname_to_int, ptr noundef nonnull @.str.430)
  br label %33

26:                                               ; preds = %23
  %27 = and i64 %2, 1
  %.not.i14 = icmp eq i64 %27, 0
  br i1 %.not.i14, label %30, label %28

28:                                               ; preds = %26
  %29 = tail call i64 @rb_fix2int(i64 noundef %2) #6
  br label %rb_num2int_inline.exit16

30:                                               ; preds = %26
  %31 = tail call i64 @rb_num2int(i64 noundef %2) #6
  br label %rb_num2int_inline.exit16

rb_num2int_inline.exit16:                         ; preds = %28, %30
  %.0.i15 = phi i64 [ %29, %28 ], [ %31, %30 ]
  %32 = trunc i64 %.0.i15 to i32
  br label %33

33:                                               ; preds = %rb_num2int_inline.exit16, %24, %rb_num2int_inline.exit, %14, %12, %10, %8, %6
  %.0 = phi i32 [ %22, %rb_num2int_inline.exit ], [ %15, %14 ], [ %13, %12 ], [ %11, %10 ], [ %9, %8 ], [ %7, %6 ], [ %25, %24 ], [ %32, %rb_num2int_inline.exit16 ]
  ret i32 %.0
}